target datalayout = "e-m:e-p270:32:32-p271:32:32-p272:64:64-i64:64-i128:128-f80:128-n8:16:32:64-S128"
target triple = "x86_64-pc-linux-gnu"

@rl_completion_suppress_quote = external global i32, align 4
@completion_force_quote = internal global i8 0, align 1

; Function Attrs: nounwind uwtable
define internal ptr @complete_from_files(ptr noundef %0, i32 noundef %1) #0 {
  %3 = alloca ptr, align 8
  %4 = alloca i32, align 4
  store ptr %0, ptr %3, align 8
  store i32 %1, ptr %4, align 4
  store i32 1, ptr @rl_completion_suppress_quote, align 4
  %5 = load ptr, ptr %3, align 8
  %6 = load i8, ptr %5, align 1
  %7 = sext i8 %6 to i32
  %8 = icmp eq i32 %7, 39
  br i1 %8, label %9, label %10

9:                                                ; preds = %2
  store i8 1, ptr @completion_force_quote, align 1
  br label %10

10:                                               ; preds = %9, %2
  %11 = load ptr, ptr %3, align 8
  %12 = load i32, ptr %4, align 4
  %13 = call ptr @rl_filename_completion_function(ptr noundef %11, i32 noundef %12)
  ret ptr %13
}