; Function Attrs: nounwind uwtable
define internal ptr @complete_from_files(ptr noundef %0, i32 noundef %1) #0 {
  store i32 1, ptr @rl_completion_suppress_quote, align 4
  %3 = load i8, ptr %0, align 1
  %4 = icmp eq i8 %3, 39
  br i1 %4, label %5, label %6

5:                                                ; preds = %2
  store i1 true, ptr @completion_force_quote, align 1
  br label %6

6:                                                ; preds = %5, %2
  %7 = tail call ptr @rl_filename_completion_function(ptr noundef nonnull %0, i32 noundef %1) #11
  ret ptr %7
}